target datalayout = "e-m:e-p270:32:32-p271:32:32-p272:64:64-i64:64-i128:128-f80:128-n8:16:32:64-S128"
target triple = "x86_64-pc-linux-gnu"

%struct.Gia_Man_t_ = type { ptr, ptr, i32, i32, i32, i32, ptr, ptr, i32, i32, i32, ptr, ptr, %struct.Vec_Int_t_, %struct.Vec_Int_t_, i32, i32, i32, %struct.Vec_Int_t_, ptr, ptr, ptr, i32, i32, i32, i32, ptr, ptr, ptr, ptr, ptr, i32, i32, ptr, i32, ptr, ptr, ptr, ptr, ptr, ptr, ptr, ptr, ptr, ptr, ptr, ptr, ptr, ptr, ptr, ptr, ptr, ptr, %struct.Vec_Int_t_, %struct.Vec_Int_t_, ptr, ptr, ptr, ptr, ptr, ptr, ptr, ptr, ptr, ptr, ptr, ptr, ptr, ptr, ptr, ptr, ptr, ptr, ptr, ptr, ptr, i32, float, float, ptr, ptr, i32, ptr, ptr, ptr, ptr, ptr, ptr, ptr, ptr, ptr, ptr, ptr, ptr, ptr, ptr, ptr, i64, i64, ptr, ptr, i32, i32, i32, i32, i32, i32, i32, i32, i32, i32, i32, i32, ptr, ptr, ptr, ptr, ptr, ptr, ptr, ptr, i32, i32, i32, ptr, i32, i32, ptr, ptr, ptr, ptr, ptr, ptr, i32, i32, ptr, %struct.Vec_Int_t_, %struct.Vec_Int_t_, %struct.Vec_Int_t_, ptr, ptr, ptr, i32, i32, i32, i32, ptr, ptr, ptr, ptr, ptr }
%struct.Vec_Int_t_ = type { i32, i32, ptr }
%struct.Vec_Wec_t_ = type { i32, i32, ptr }

; Function Attrs: inlinehint nounwind uwtable
define internal ptr @Vec_WecEntry(ptr noundef %0, i32 noundef %1) #2 {
  %3 = alloca ptr, align 8
  %4 = alloca i32, align 4
  store ptr %0, ptr %3, align 8, !tbaa !72
  store i32 %1, ptr %4, align 4, !tbaa !10
  %5 = load ptr, ptr %3, align 8, !tbaa !72
  %6 = getelementptr inbounds nuw %struct.Vec_Wec_t_, ptr %5, i32 0, i32 2
  %7 = load ptr, ptr %6, align 8, !tbaa !76
  %8 = load i32, ptr %4, align 4, !tbaa !10
  %9 = sext i32 %8 to i64
  %10 = getelementptr inbounds %struct.Vec_Int_t_, ptr %7, i64 %9
  ret ptr %10
}

; Function Attrs: inlinehint nounwind uwtable
define internal i32 @Abc_MaxInt(i32 noundef %0, i32 noundef %1) #2 {
  %3 = alloca i32, align 4
  %4 = alloca i32, align 4
  store i32 %0, ptr %3, align 4, !tbaa !10
  store i32 %1, ptr %4, align 4, !tbaa !10
  %5 = load i32, ptr %3, align 4, !tbaa !10
  %6 = load i32, ptr %4, align 4, !tbaa !10
  %7 = icmp sgt i32 %5, %6
  br i1 %7, label %8, label %10

8:                                                ; preds = %2
  %9 = load i32, ptr %3, align 4, !tbaa !10
  br label %12

10:                                               ; preds = %2
  %11 = load i32, ptr %4, align 4, !tbaa !10
  br label %12

12:                                               ; preds = %10, %8
  %13 = phi i32 [ %9, %8 ], [ %11, %10 ]
  ret i32 %13
}

; Function Attrs: inlinehint nounwind uwtable
define internal i32 @Gia_ObjIsLut(ptr noundef %0, i32 noundef %1) #2 {
  %3 = alloca ptr, align 8
  %4 = alloca i32, align 4
  store ptr %0, ptr %3, align 8, !tbaa !3
  store i32 %1, ptr %4, align 4, !tbaa !10
  %5 = load ptr, ptr %3, align 8, !tbaa !3
  %6 = getelementptr inbounds nuw %struct.Gia_Man_t_, ptr %5, i32 0, i32 37
  %7 = load ptr, ptr %6, align 8, !tbaa !53
  %8 = load i32, ptr %4, align 4, !tbaa !10
  %9 = call i32 @Vec_IntEntry(ptr noundef %7, i32 noundef %8)
  %10 = icmp ne i32 %9, 0
  %11 = zext i1 %10 to i32
  ret i32 %11
}

; Function Attrs: inlinehint nounwind uwtable
define internal i32 @Vec_IntEntry(ptr noundef %0, i32 noundef %1) #2 {
  %3 = alloca ptr, align 8
  %4 = alloca i32, align 4
  store ptr %0, ptr %3, align 8, !tbaa !8
  store i32 %1, ptr %4, align 4, !tbaa !10
  %5 = load ptr, ptr %3, align 8, !tbaa !8
  %6 = getelementptr inbounds nuw %struct.Vec_Int_t_, ptr %5, i32 0, i32 2
  %7 = load ptr, ptr %6, align 8, !tbaa !36
  %8 = load i32, ptr %4, align 4, !tbaa !10
  %9 = sext i32 %8 to i64
  %10 = getelementptr inbounds i32, ptr %7, i64 %9
  %11 = load i32, ptr %10, align 4, !tbaa !10
  ret i32 %11
}

; Function Attrs: inlinehint nounwind uwtable
define internal i32 @Vec_IntSize(ptr noundef %0) #2 {
  %2 = alloca ptr, align 8
  store ptr %0, ptr %2, align 8, !tbaa !8
  %3 = load ptr, ptr %2, align 8, !tbaa !8
  %4 = getelementptr inbounds nuw %struct.Vec_Int_t_, ptr %3, i32 0, i32 1
  %5 = load i32, ptr %4, align 4, !tbaa !37
  ret i32 %5
}

; Function Attrs: inlinehint nounwind uwtable
define internal void @Vec_IntReverseOrder(ptr noundef %0) #2 {
  %2 = alloca ptr, align 8
  %3 = alloca i32, align 4
  %4 = alloca i32, align 4
  store ptr %0, ptr %2, align 8, !tbaa !8
  call void @llvm.lifetime.start.p0(i64 4, ptr %3) #10
  call void @llvm.lifetime.start.p0(i64 4, ptr %4) #10
  store i32 0, ptr %3, align 4, !tbaa !10
  br label %5

5:                                                ; preds = %50, %1
  %6 = load i32, ptr %3, align 4, !tbaa !10
  %7 = load ptr, ptr %2, align 8, !tbaa !8
  %8 = getelementptr inbounds nuw %struct.Vec_Int_t_, ptr %7, i32 0, i32 1
  %9 = load i32, ptr %8, align 4, !tbaa !37
  %10 = sdiv i32 %9, 2
  %11 = icmp slt i32 %6, %10
  br i1 %11, label %12, label %53

12:                                               ; preds = %5
  %13 = load ptr, ptr %2, align 8, !tbaa !8
  %14 = getelementptr inbounds nuw %struct.Vec_Int_t_, ptr %13, i32 0, i32 2
  %15 = load ptr, ptr %14, align 8, !tbaa !36
  %16 = load i32, ptr %3, align 4, !tbaa !10
  %17 = sext i32 %16 to i64
  %18 = getelementptr inbounds i32, ptr %15, i64 %17
  %19 = load i32, ptr %18, align 4, !tbaa !10
  store i32 %19, ptr %4, align 4, !tbaa !10
  %20 = load ptr, ptr %2, align 8, !tbaa !8
  %21 = getelementptr inbounds nuw %struct.Vec_Int_t_, ptr %20, i32 0, i32 2
  %22 = load ptr, ptr %21, align 8, !tbaa !36
  %23 = load ptr, ptr %2, align 8, !tbaa !8
  %24 = getelementptr inbounds nuw %struct.Vec_Int_t_, ptr %23, i32 0, i32 1
  %25 = load i32, ptr %24, align 4, !tbaa !37
  %26 = sub nsw i32 %25, 1
  %27 = load i32, ptr %3, align 4, !tbaa !10
  %28 = sub nsw i32 %26, %27
  %29 = sext i32 %28 to i64
  %30 = getelementptr inbounds i32, ptr %22, i64 %29
  %31 = load i32, ptr %30, align 4, !tbaa !10
  %32 = load ptr, ptr %2, align 8, !tbaa !8
  %33 = getelementptr inbounds nuw %struct.Vec_Int_t_, ptr %32, i32 0, i32 2
  %34 = load ptr, ptr %33, align 8, !tbaa !36
  %35 = load i32, ptr %3, align 4, !tbaa !10
  %36 = sext i32 %35 to i64
  %37 = getelementptr inbounds i32, ptr %34, i64 %36
  store i32 %31, ptr %37, align 4, !tbaa !10
  %38 = load i32, ptr %4, align 4, !tbaa !10
  %39 = load ptr, ptr %2, align 8, !tbaa !8
  %40 = getelementptr inbounds nuw %struct.Vec_Int_t_, ptr %39, i32 0, i32 2
  %41 = load ptr, ptr %40, align 8, !tbaa !36
  %42 = load ptr, ptr %2, align 8, !tbaa !8
  %43 = getelementptr inbounds nuw %struct.Vec_Int_t_, ptr %42, i32 0, i32 1
  %44 = load i32, ptr %43, align 4, !tbaa !37
  %45 = sub nsw i32 %44, 1
  %46 = load i32, ptr %3, align 4, !tbaa !10
  %47 = sub nsw i32 %45, %46
  %48 = sext i32 %47 to i64
  %49 = getelementptr inbounds i32, ptr %41, i64 %48
  store i32 %38, ptr %49, align 4, !tbaa !10
  br label %50

50:                                               ; preds = %12
  %51 = load i32, ptr %3, align 4, !tbaa !10
  %52 = add nsw i32 %51, 1
  store i32 %52, ptr %3, align 4, !tbaa !10
  br label %5, !llvm.loop !79

53:                                               ; preds = %5
  call void @llvm.lifetime.end.p0(i64 4, ptr %4) #10
  call void @llvm.lifetime.end.p0(i64 4, ptr %3) #10
  ret void
}

; Function Attrs: nounwind uwtable
define void @Gia_ManUpdateMapping(ptr noundef %0, ptr noundef %1, ptr noundef %2) #0 {
  %4 = alloca ptr, align 8
  %5 = alloca ptr, align 8
  %6 = alloca ptr, align 8
  %7 = alloca i32, align 4
  %8 = alloca i32, align 4
  %9 = alloca %struct.Vec_Int_t_, align 8
  store ptr %0, ptr %4, align 8, !tbaa !3
  store ptr %1, ptr %5, align 8, !tbaa !8
  store ptr %2, ptr %6, align 8, !tbaa !72
  call void @llvm.lifetime.start.p0(i64 4, ptr %7) #10
  call void @llvm.lifetime.start.p0(i64 4, ptr %8) #10
  store i32 0, ptr %7, align 4, !tbaa !10
  br label %10

10:                                               ; preds = %38, %3
  %11 = load i32, ptr %7, align 4, !tbaa !10
  %12 = load ptr, ptr %5, align 8, !tbaa !8
  %13 = call i32 @Vec_IntSize(ptr noundef %12)
  %14 = icmp slt i32 %11, %13
  br i1 %14, label %15, label %19

15:                                               ; preds = %10
  %16 = load ptr, ptr %5, align 8, !tbaa !8
  %17 = load i32, ptr %7, align 4, !tbaa !10
  %18 = call i32 @Vec_IntEntry(ptr noundef %16, i32 noundef %17)
  store i32 %18, ptr %8, align 4, !tbaa !10
  br label %19

19:                                               ; preds = %15, %10
  %20 = phi i1 [ false, %10 ], [ true, %15 ]
  br i1 %20, label %21, label %41

21:                                               ; preds = %19
  call void @llvm.lifetime.start.p0(i64 16, ptr %9) #10
  %22 = load ptr, ptr %4, align 8, !tbaa !3
  %23 = getelementptr inbounds nuw %struct.Gia_Man_t_, ptr %22, i32 0, i32 38
  %24 = load ptr, ptr %23, align 8, !tbaa !57
  %25 = load i32, ptr %8, align 4, !tbaa !10
  %26 = call ptr @Vec_WecEntry(ptr noundef %24, i32 noundef %25)
  call void @llvm.memcpy.p0.p0.i64(ptr align 8 %9, ptr align 8 %26, i64 16, i1 false), !tbaa.struct !73
  %27 = load ptr, ptr %4, align 8, !tbaa !3
  %28 = getelementptr inbounds nuw %struct.Gia_Man_t_, ptr %27, i32 0, i32 38
  %29 = load ptr, ptr %28, align 8, !tbaa !57
  %30 = load i32, ptr %8, align 4, !tbaa !10
  %31 = call ptr @Vec_WecEntry(ptr noundef %29, i32 noundef %30)
  %32 = load ptr, ptr %6, align 8, !tbaa !72
  %33 = load i32, ptr %7, align 4, !tbaa !10
  %34 = call ptr @Vec_WecEntry(ptr noundef %32, i32 noundef %33)
  call void @llvm.memcpy.p0.p0.i64(ptr align 8 %31, ptr align 8 %34, i64 16, i1 false), !tbaa.struct !73
  %35 = load ptr, ptr %6, align 8, !tbaa !72
  %36 = load i32, ptr %7, align 4, !tbaa !10
  %37 = call ptr @Vec_WecEntry(ptr noundef %35, i32 noundef %36)
  call void @llvm.memcpy.p0.p0.i64(ptr align 8 %37, ptr align 8 %9, i64 16, i1 false), !tbaa.struct !73
  call void @llvm.lifetime.end.p0(i64 16, ptr %9) #10
  br label %38

38:                                               ; preds = %21
  %39 = load i32, ptr %7, align 4, !tbaa !10
  %40 = add nsw i32 %39, 1
  store i32 %40, ptr %7, align 4, !tbaa !10
  br label %10, !llvm.loop !75

41:                                               ; preds = %19
  call void @llvm.lifetime.end.p0(i64 4, ptr %8) #10
  call void @llvm.lifetime.end.p0(i64 4, ptr %7) #10
  ret void
}

; Function Attrs: nounwind uwtable
define i32 @Gia_ManEvalWindowInc(ptr noundef %0, ptr noundef %1, ptr noundef %2, ptr noundef %3, ptr noundef %4, i32 noundef %5) #0 {
  %7 = alloca ptr, align 8
  %8 = alloca ptr, align 8
  %9 = alloca ptr, align 8
  %10 = alloca ptr, align 8
  %11 = alloca ptr, align 8
  %12 = alloca i32, align 4
  %13 = alloca i32, align 4
  %14 = alloca i32, align 4
  %15 = alloca i32, align 4
  %16 = alloca i32, align 4
  store ptr %0, ptr %7, align 8, !tbaa !3
  store ptr %1, ptr %8, align 8, !tbaa !8
  store ptr %2, ptr %9, align 8, !tbaa !8
  store ptr %3, ptr %10, align 8, !tbaa !72
  store ptr %4, ptr %11, align 8, !tbaa !8
  store i32 %5, ptr %12, align 4, !tbaa !10
  call void @llvm.lifetime.start.p0(i64 4, ptr %13) #10
  call void @llvm.lifetime.start.p0(i64 4, ptr %14) #10
  call void @llvm.lifetime.start.p0(i64 4, ptr %15) #10
  call void @llvm.lifetime.start.p0(i64 4, ptr %16) #10
  store i32 0, ptr %16, align 4, !tbaa !10
  %17 = load ptr, ptr %7, align 8, !tbaa !3
  %18 = load ptr, ptr %9, align 8, !tbaa !8
  %19 = load ptr, ptr %10, align 8, !tbaa !72
  call void @Gia_ManUpdateMapping(ptr noundef %17, ptr noundef %18, ptr noundef %19)
  %20 = load ptr, ptr %7, align 8, !tbaa !3
  %21 = load ptr, ptr %8, align 8, !tbaa !8
  %22 = load ptr, ptr %11, align 8, !tbaa !8
  call void @Gia_ManCollectTfo(ptr noundef %20, ptr noundef %21, ptr noundef %22)
  %23 = load ptr, ptr %11, align 8, !tbaa !8
  call void @Vec_IntReverseOrder(ptr noundef %23)
  store i32 0, ptr %13, align 4, !tbaa !10
  br label %24

24:                                               ; preds = %58, %6
  %25 = load i32, ptr %13, align 4, !tbaa !10
  %26 = load ptr, ptr %11, align 8, !tbaa !8
  %27 = call i32 @Vec_IntSize(ptr noundef %26)
  %28 = icmp slt i32 %25, %27
  br i1 %28, label %29, label %33

29:                                               ; preds = %24
  %30 = load ptr, ptr %11, align 8, !tbaa !8
  %31 = load i32, ptr %13, align 4, !tbaa !10
  %32 = call i32 @Vec_IntEntry(ptr noundef %30, i32 noundef %31)
  store i32 %32, ptr %14, align 4, !tbaa !10
  br label %33

33:                                               ; preds = %29, %24
  %34 = phi i1 [ false, %24 ], [ true, %29 ]
  br i1 %34, label %35, label %61

35:                                               ; preds = %33
  %36 = load ptr, ptr %7, align 8, !tbaa !3
  %37 = load i32, ptr %14, align 4, !tbaa !10
  %38 = call i32 @Gia_ObjIsLut(ptr noundef %36, i32 noundef %37)
  %39 = icmp ne i32 %38, 0
  br i1 %39, label %41, label %40

40:                                               ; preds = %35
  br label %58

41:                                               ; preds = %35
  %42 = load ptr, ptr %7, align 8, !tbaa !3
  %43 = load i32, ptr %14, align 4, !tbaa !10
  %44 = load ptr, ptr %7, align 8, !tbaa !3
  %45 = getelementptr inbounds nuw %struct.Gia_Man_t_, ptr %44, i32 0, i32 46
  %46 = load ptr, ptr %45, align 8, !tbaa !44
  %47 = load ptr, ptr %7, align 8, !tbaa !3
  %48 = getelementptr inbounds nuw %struct.Gia_Man_t_, ptr %47, i32 0, i32 48
  %49 = load ptr, ptr %48, align 8, !tbaa !12
  %50 = load ptr, ptr %7, align 8, !tbaa !3
  %51 = getelementptr inbounds nuw %struct.Gia_Man_t_, ptr %50, i32 0, i32 49
  %52 = load ptr, ptr %51, align 8, !tbaa !31
  %53 = load i32, ptr %12, align 4, !tbaa !10
  %54 = call i32 @Gia_ObjComputeEdgeDelay(ptr noundef %42, i32 noundef %43, ptr noundef %46, ptr noundef %49, ptr noundef %52, i32 noundef %53)
  store i32 %54, ptr %15, align 4, !tbaa !10
  %55 = load i32, ptr %16, align 4, !tbaa !10
  %56 = load i32, ptr %15, align 4, !tbaa !10
  %57 = call i32 @Abc_MaxInt(i32 noundef %55, i32 noundef %56)
  store i32 %57, ptr %16, align 4, !tbaa !10
  br label %58

58:                                               ; preds = %41, %40
  %59 = load i32, ptr %13, align 4, !tbaa !10
  %60 = add nsw i32 %59, 1
  store i32 %60, ptr %13, align 4, !tbaa !10
  br label %24, !llvm.loop !78

61:                                               ; preds = %33
  %62 = load ptr, ptr %7, align 8, !tbaa !3
  %63 = load ptr, ptr %9, align 8, !tbaa !8
  %64 = load ptr, ptr %10, align 8, !tbaa !72
  call void @Gia_ManUpdateMapping(ptr noundef %62, ptr noundef %63, ptr noundef %64)
  %65 = load i32, ptr %16, align 4, !tbaa !10
  call void @llvm.lifetime.end.p0(i64 4, ptr %16) #10
  call void @llvm.lifetime.end.p0(i64 4, ptr %15) #10
  call void @llvm.lifetime.end.p0(i64 4, ptr %14) #10
  call void @llvm.lifetime.end.p0(i64 4, ptr %13) #10
  ret i32 %65
}