; Function Attrs: nounwind uwtable
define range(i32 0, -2147483648) i32 @Gia_ManEvalWindowInc(ptr noundef %0, ptr noundef %1, ptr noundef readonly captures(none) %2, ptr noundef readonly captures(none) %3, ptr noundef %4, i32 noundef %5) local_unnamed_addr #0 {
  %7 = alloca %struct.Vec_Int_t_, align 8
  %8 = alloca %struct.Vec_Int_t_, align 8
  %9 = getelementptr i8, ptr %2, i64 4
  %.val17.i = load i32, ptr %9, align 4, !tbaa !31
  %10 = icmp sgt i32 %.val17.i, 0
  br i1 %10, label %.lr.ph.i, label %Gia_ManUpdateMapping.exit

.lr.ph.i:                                         ; preds = %6
  %11 = getelementptr i8, ptr %2, i64 8
  %12 = getelementptr inbounds nuw i8, ptr %0, i64 272
  %13 = getelementptr i8, ptr %3, i64 8
  br label %14

14:                                               ; preds = %14, %.lr.ph.i
  %indvars.iv.i = phi i64 [ 0, %.lr.ph.i ], [ %indvars.iv.next.i, %14 ]
  %.val12.i = load ptr, ptr %11, align 8, !tbaa !8
  %15 = getelementptr inbounds nuw i32, ptr %.val12.i, i64 %indvars.iv.i
  %16 = load i32, ptr %15, align 4, !tbaa !34
  call void @llvm.lifetime.start.p0(i64 16, ptr nonnull %8)
  %17 = load ptr, ptr %12, align 8, !tbaa !47
  %18 = getelementptr i8, ptr %17, i64 8
  %.val13.i = load ptr, ptr %18, align 8, !tbaa !48
  %19 = sext i32 %16 to i64
  %20 = getelementptr inbounds %struct.Vec_Int_t_, ptr %.val13.i, i64 %19
  call void @llvm.memcpy.p0.p0.i64(ptr noundef nonnull align 8 dereferenceable(16) %8, ptr noundef nonnull align 8 dereferenceable(16) %20, i64 16, i1 false), !tbaa.struct !69
  %.val15.i = load ptr, ptr %13, align 8, !tbaa !48
  %21 = getelementptr inbounds nuw %struct.Vec_Int_t_, ptr %.val15.i, i64 %indvars.iv.i
  tail call void @llvm.memcpy.p0.p0.i64(ptr noundef nonnull align 8 dereferenceable(16) %20, ptr noundef nonnull align 8 dereferenceable(16) %21, i64 16, i1 false), !tbaa.struct !69
  %.val16.i = load ptr, ptr %13, align 8, !tbaa !48
  %22 = getelementptr inbounds nuw %struct.Vec_Int_t_, ptr %.val16.i, i64 %indvars.iv.i
  call void @llvm.memcpy.p0.p0.i64(ptr noundef nonnull align 8 dereferenceable(16) %22, ptr noundef nonnull align 8 dereferenceable(16) %8, i64 16, i1 false), !tbaa.struct !69
  call void @llvm.lifetime.end.p0(i64 16, ptr nonnull %8)
  %indvars.iv.next.i = add nuw nsw i64 %indvars.iv.i, 1
  %.val.i = load i32, ptr %9, align 4, !tbaa !31
  %23 = sext i32 %.val.i to i64
  %24 = icmp slt i64 %indvars.iv.next.i, %23
  br i1 %24, label %14, label %Gia_ManUpdateMapping.exit, !llvm.loop !71

Gia_ManUpdateMapping.exit:                        ; preds = %14, %6
  tail call void @Gia_ManCollectTfo(ptr noundef %0, ptr noundef %1, ptr noundef %4) #19
  %25 = getelementptr inbounds nuw i8, ptr %4, i64 4
  %26 = load i32, ptr %25, align 4, !tbaa !31
  %27 = icmp sgt i32 %26, 1
  br i1 %27, label %.lr.ph.i28, label %Vec_IntReverseOrder.exit

.lr.ph.i28:                                       ; preds = %Gia_ManUpdateMapping.exit
  %28 = getelementptr inbounds nuw i8, ptr %4, i64 8
  %29 = load ptr, ptr %28, align 8, !tbaa !8
  br label %30

30:                                               ; preds = %30, %.lr.ph.i28
  %indvars.iv.i29 = phi i64 [ 0, %.lr.ph.i28 ], [ %indvars.iv.next.i30, %30 ]
  %31 = phi i32 [ %26, %.lr.ph.i28 ], [ %44, %30 ]
  %32 = getelementptr inbounds nuw i32, ptr %29, i64 %indvars.iv.i29
  %33 = load i32, ptr %32, align 4, !tbaa !34
  %34 = trunc nuw nsw i64 %indvars.iv.i29 to i32
  %35 = xor i32 %34, -1
  %36 = add i32 %31, %35
  %37 = sext i32 %36 to i64
  %38 = getelementptr inbounds i32, ptr %29, i64 %37
  %39 = load i32, ptr %38, align 4, !tbaa !34
  store i32 %39, ptr %32, align 4, !tbaa !34
  %40 = load i32, ptr %25, align 4, !tbaa !31
  %41 = add i32 %40, %35
  %42 = sext i32 %41 to i64
  %43 = getelementptr inbounds i32, ptr %29, i64 %42
  store i32 %33, ptr %43, align 4, !tbaa !34
  %indvars.iv.next.i30 = add nuw nsw i64 %indvars.iv.i29, 1
  %44 = load i32, ptr %25, align 4, !tbaa !31
  %45 = sdiv i32 %44, 2
  %46 = sext i32 %45 to i64
  %47 = icmp slt i64 %indvars.iv.next.i30, %46
  br i1 %47, label %30, label %Vec_IntReverseOrder.exit, !llvm.loop !72

Vec_IntReverseOrder.exit:                         ; preds = %30, %Gia_ManUpdateMapping.exit
  %.val42 = phi i32 [ %26, %Gia_ManUpdateMapping.exit ], [ %44, %30 ]
  %48 = icmp sgt i32 %.val42, 0
  br i1 %48, label %.lr.ph, label %.critedge

.lr.ph:                                           ; preds = %Vec_IntReverseOrder.exit
  %49 = getelementptr i8, ptr %4, i64 8
  %50 = getelementptr i8, ptr %0, i64 264
  %51 = getelementptr inbounds nuw i8, ptr %0, i64 336
  %52 = getelementptr inbounds nuw i8, ptr %0, i64 352
  %53 = getelementptr inbounds nuw i8, ptr %0, i64 360
  br label %54

54:                                               ; preds = %.lr.ph, %67
  %.val47 = phi i32 [ %.val42, %.lr.ph ], [ %.val, %67 ]
  %indvars.iv = phi i64 [ 0, %.lr.ph ], [ %indvars.iv.next, %67 ]
  %.044 = phi i32 [ 0, %.lr.ph ], [ %.1, %67 ]
  %.val26 = load ptr, ptr %49, align 8, !tbaa !8
  %55 = getelementptr inbounds nuw i32, ptr %.val26, i64 %indvars.iv
  %56 = load i32, ptr %55, align 4, !tbaa !34
  %.val27 = load ptr, ptr %50, align 8, !tbaa !41
  %57 = getelementptr i8, ptr %.val27, i64 8
  %.val27.val = load ptr, ptr %57, align 8, !tbaa !8
  %58 = sext i32 %56 to i64
  %59 = getelementptr inbounds i32, ptr %.val27.val, i64 %58
  %60 = load i32, ptr %59, align 4, !tbaa !34
  %.not41 = icmp eq i32 %60, 0
  br i1 %.not41, label %67, label %61

61:                                               ; preds = %54
  %62 = load ptr, ptr %51, align 8, !tbaa !40
  %63 = load ptr, ptr %52, align 8, !tbaa !32
  %64 = load ptr, ptr %53, align 8, !tbaa !33
  %65 = tail call i32 @Gia_ObjComputeEdgeDelay(ptr noundef nonnull %0, i32 noundef %56, ptr noundef %62, ptr noundef %63, ptr noundef %64, i32 noundef %5)
  %66 = tail call noundef i32 @llvm.smax.i32(i32 %.044, i32 %65)
  %.val.pre = load i32, ptr %25, align 4, !tbaa !31
  br label %67

67:                                               ; preds = %54, %61
  %.val = phi i32 [ %.val.pre, %61 ], [ %.val47, %54 ]
  %.1 = phi i32 [ %66, %61 ], [ %.044, %54 ]
  %indvars.iv.next = add nuw nsw i64 %indvars.iv, 1
  %68 = sext i32 %.val to i64
  %69 = icmp slt i64 %indvars.iv.next, %68
  br i1 %69, label %54, label %.critedge, !llvm.loop !73

.critedge:                                        ; preds = %67, %Vec_IntReverseOrder.exit
  %.0.lcssa = phi i32 [ 0, %Vec_IntReverseOrder.exit ], [ %.1, %67 ]
  %.val17.i31 = load i32, ptr %9, align 4, !tbaa !31
  %70 = icmp sgt i32 %.val17.i31, 0
  br i1 %70, label %.lr.ph.i32, label %Gia_ManUpdateMapping.exit40

.lr.ph.i32:                                       ; preds = %.critedge
  %71 = getelementptr i8, ptr %2, i64 8
  %72 = getelementptr inbounds nuw i8, ptr %0, i64 272
  %73 = getelementptr i8, ptr %3, i64 8
  br label %74

74:                                               ; preds = %74, %.lr.ph.i32
  %indvars.iv.i33 = phi i64 [ 0, %.lr.ph.i32 ], [ %indvars.iv.next.i38, %74 ]
  %.val12.i34 = load ptr, ptr %71, align 8, !tbaa !8
  %75 = getelementptr inbounds nuw i32, ptr %.val12.i34, i64 %indvars.iv.i33
  %76 = load i32, ptr %75, align 4, !tbaa !34
  call void @llvm.lifetime.start.p0(i64 16, ptr nonnull %7)
  %77 = load ptr, ptr %72, align 8, !tbaa !47
  %78 = getelementptr i8, ptr %77, i64 8
  %.val13.i35 = load ptr, ptr %78, align 8, !tbaa !48
  %79 = sext i32 %76 to i64
  %80 = getelementptr inbounds %struct.Vec_Int_t_, ptr %.val13.i35, i64 %79
  call void @llvm.memcpy.p0.p0.i64(ptr noundef nonnull align 8 dereferenceable(16) %7, ptr noundef nonnull align 8 dereferenceable(16) %80, i64 16, i1 false), !tbaa.struct !69
  %.val15.i36 = load ptr, ptr %73, align 8, !tbaa !48
  %81 = getelementptr inbounds nuw %struct.Vec_Int_t_, ptr %.val15.i36, i64 %indvars.iv.i33
  tail call void @llvm.memcpy.p0.p0.i64(ptr noundef nonnull align 8 dereferenceable(16) %80, ptr noundef nonnull align 8 dereferenceable(16) %81, i64 16, i1 false), !tbaa.struct !69
  %.val16.i37 = load ptr, ptr %73, align 8, !tbaa !48
  %82 = getelementptr inbounds nuw %struct.Vec_Int_t_, ptr %.val16.i37, i64 %indvars.iv.i33
  call void @llvm.memcpy.p0.p0.i64(ptr noundef nonnull align 8 dereferenceable(16) %82, ptr noundef nonnull align 8 dereferenceable(16) %7, i64 16, i1 false), !tbaa.struct !69
  call void @llvm.lifetime.end.p0(i64 16, ptr nonnull %7)
  %indvars.iv.next.i38 = add nuw nsw i64 %indvars.iv.i33, 1
  %.val.i39 = load i32, ptr %9, align 4, !tbaa !31
  %83 = sext i32 %.val.i39 to i64
  %84 = icmp slt i64 %indvars.iv.next.i38, %83
  br i1 %84, label %74, label %Gia_ManUpdateMapping.exit40, !llvm.loop !71

Gia_ManUpdateMapping.exit40:                      ; preds = %74, %.critedge
  ret i32 %.0.lcssa
}